target datalayout = "e-m:e-p270:32:32-p271:32:32-p272:64:64-i64:64-i128:128-f80:128-n8:16:32:64-S128"
target triple = "x86_64-pc-linux-gnu"

%struct._xmlEntity = type { ptr, i32, ptr, ptr, ptr, ptr, ptr, ptr, ptr, ptr, ptr, i32, i32, ptr, ptr, ptr, ptr, i32, i32 }
%struct._zval_struct = type { %union._zend_value, %union.anon, %union.anon.2 }
%union._zend_value = type { i64 }
%union.anon = type { i32 }
%union.anon.2 = type { i32 }
%struct._zend_refcounted_h = type { i32, %union.anon.3 }
%union.anon.3 = type { i32 }
%struct._zend_string = type { %struct._zend_refcounted_h, i64, i64, [1 x i8] }

; Function Attrs: nounwind uwtable
define hidden i32 @dom_entity_public_id_read(ptr noundef %0, ptr noundef %1) #0 {
  %3 = alloca ptr, align 8
  %4 = alloca i32, align 4
  %5 = alloca i64, align 8
  %6 = alloca i8, align 1
  %7 = alloca ptr, align 8
  %8 = alloca ptr, align 8
  %9 = alloca i64, align 8
  %10 = alloca i8, align 1
  %11 = alloca ptr, align 8
  %12 = alloca i32, align 4
  %13 = alloca ptr, align 8
  %14 = alloca ptr, align 8
  %15 = alloca ptr, align 8
  %16 = alloca ptr, align 8
  %17 = alloca ptr, align 8
  %18 = alloca ptr, align 8
  store ptr %0, ptr %13, align 8
  store ptr %1, ptr %14, align 8
  %19 = load ptr, ptr %13, align 8
  %20 = call ptr @dom_object_get_node(ptr noundef %19)
  store ptr %20, ptr %15, align 8
  %21 = load ptr, ptr %15, align 8
  %22 = icmp eq ptr %21, null
  br i1 %22, label %23, label %24

23:                                               ; preds = %2
  call void @php_dom_throw_error(i32 noundef 11, i32 noundef 1)
  store i32 -1, ptr %12, align 4
  br label %503

24:                                               ; preds = %2
  %25 = load ptr, ptr %15, align 8
  %26 = getelementptr inbounds %struct._xmlEntity, ptr %25, i32 0, i32 12
  %27 = load i32, ptr %26, align 4
  %28 = icmp ne i32 %27, 3
  br i1 %28, label %34, label %29

29:                                               ; preds = %24
  %30 = load ptr, ptr %15, align 8
  %31 = getelementptr inbounds %struct._xmlEntity, ptr %30, i32 0, i32 13
  %32 = load ptr, ptr %31, align 8
  %33 = icmp ne ptr %32, null
  br i1 %33, label %39, label %34

34:                                               ; preds = %29, %24
  br label %35

35:                                               ; preds = %34
  %36 = load ptr, ptr %14, align 8
  %37 = getelementptr inbounds %struct._zval_struct, ptr %36, i32 0, i32 1
  store i32 1, ptr %37, align 8
  br label %38

38:                                               ; preds = %35
  br label %502

39:                                               ; preds = %29
  br label %40

40:                                               ; preds = %39
  %41 = load ptr, ptr %15, align 8
  %42 = getelementptr inbounds %struct._xmlEntity, ptr %41, i32 0, i32 13
  %43 = load ptr, ptr %42, align 8
  store ptr %43, ptr %16, align 8
  br label %44

44:                                               ; preds = %40
  br label %45

45:                                               ; preds = %44
  %46 = load ptr, ptr %14, align 8
  store ptr %46, ptr %17, align 8
  %47 = load ptr, ptr %16, align 8
  %48 = load ptr, ptr %16, align 8
  %49 = call i64 @strlen(ptr noundef %48) #6
  store ptr %47, ptr %8, align 8
  store i64 %49, ptr %9, align 8
  store i8 0, ptr %10, align 1
  %50 = load i64, ptr %9, align 8
  %51 = load i8, ptr %10, align 1
  %52 = trunc i8 %51 to i1
  store i64 %50, ptr %5, align 8
  %53 = zext i1 %52 to i8
  store i8 %53, ptr %6, align 1
  %54 = load i8, ptr %6, align 1
  %55 = trunc i8 %54 to i1
  br i1 %55, label %56, label %64

56:                                               ; preds = %45
  %57 = load i64, ptr %5, align 8
  %58 = add i64 24, %57
  %59 = add i64 %58, 1
  %60 = add i64 %59, 8
  %61 = sub i64 %60, 1
  %62 = and i64 %61, -8
  %63 = call noalias ptr @__zend_malloc(i64 noundef %62) #7
  br label %468

64:                                               ; preds = %45
  %65 = load i64, ptr %5, align 8
  %66 = add i64 24, %65
  %67 = add i64 %66, 1
  %68 = add i64 %67, 8
  %69 = sub i64 %68, 1
  %70 = and i64 %69, -8
  %71 = call i1 @llvm.is.constant.i64(i64 %70)
  br i1 %71, label %72, label %458

72:                                               ; preds = %64
  %73 = load i64, ptr %5, align 8
  %74 = add i64 24, %73
  %75 = add i64 %74, 1
  %76 = add i64 %75, 8
  %77 = sub i64 %76, 1
  %78 = and i64 %77, -8
  %79 = icmp ule i64 %78, 8
  br i1 %79, label %80, label %82

80:                                               ; preds = %72
  %81 = call noalias ptr @_emalloc_8() #8
  br label %456

82:                                               ; preds = %72
  %83 = load i64, ptr %5, align 8
  %84 = add i64 24, %83
  %85 = add i64 %84, 1
  %86 = add i64 %85, 8
  %87 = sub i64 %86, 1
  %88 = and i64 %87, -8
  %89 = icmp ule i64 %88, 16
  br i1 %89, label %90, label %92

90:                                               ; preds = %82
  %91 = call noalias ptr @_emalloc_16() #8
  br label %454

92:                                               ; preds = %82
  %93 = load i64, ptr %5, align 8
  %94 = add i64 24, %93
  %95 = add i64 %94, 1
  %96 = add i64 %95, 8
  %97 = sub i64 %96, 1
  %98 = and i64 %97, -8
  %99 = icmp ule i64 %98, 24
  br i1 %99, label %100, label %102

100:                                              ; preds = %92
  %101 = call noalias ptr @_emalloc_24() #8
  br label %452

102:                                              ; preds = %92
  %103 = load i64, ptr %5, align 8
  %104 = add i64 24, %103
  %105 = add i64 %104, 1
  %106 = add i64 %105, 8
  %107 = sub i64 %106, 1
  %108 = and i64 %107, -8
  %109 = icmp ule i64 %108, 32
  br i1 %109, label %110, label %112

110:                                              ; preds = %102
  %111 = call noalias ptr @_emalloc_32() #8
  br label %450

112:                                              ; preds = %102
  %113 = load i64, ptr %5, align 8
  %114 = add i64 24, %113
  %115 = add i64 %114, 1
  %116 = add i64 %115, 8
  %117 = sub i64 %116, 1
  %118 = and i64 %117, -8
  %119 = icmp ule i64 %118, 40
  br i1 %119, label %120, label %122

120:                                              ; preds = %112
  %121 = call noalias ptr @_emalloc_40() #8
  br label %448

122:                                              ; preds = %112
  %123 = load i64, ptr %5, align 8
  %124 = add i64 24, %123
  %125 = add i64 %124, 1
  %126 = add i64 %125, 8
  %127 = sub i64 %126, 1
  %128 = and i64 %127, -8
  %129 = icmp ule i64 %128, 48
  br i1 %129, label %130, label %132

130:                                              ; preds = %122
  %131 = call noalias ptr @_emalloc_48() #8
  br label %446

132:                                              ; preds = %122
  %133 = load i64, ptr %5, align 8
  %134 = add i64 24, %133
  %135 = add i64 %134, 1
  %136 = add i64 %135, 8
  %137 = sub i64 %136, 1
  %138 = and i64 %137, -8
  %139 = icmp ule i64 %138, 56
  br i1 %139, label %140, label %142

140:                                              ; preds = %132
  %141 = call noalias ptr @_emalloc_56() #8
  br label %444

142:                                              ; preds = %132
  %143 = load i64, ptr %5, align 8
  %144 = add i64 24, %143
  %145 = add i64 %144, 1
  %146 = add i64 %145, 8
  %147 = sub i64 %146, 1
  %148 = and i64 %147, -8
  %149 = icmp ule i64 %148, 64
  br i1 %149, label %150, label %152

150:                                              ; preds = %142
  %151 = call noalias ptr @_emalloc_64() #8
  br label %442

152:                                              ; preds = %142
  %153 = load i64, ptr %5, align 8
  %154 = add i64 24, %153
  %155 = add i64 %154, 1
  %156 = add i64 %155, 8
  %157 = sub i64 %156, 1
  %158 = and i64 %157, -8
  %159 = icmp ule i64 %158, 80
  br i1 %159, label %160, label %162

160:                                              ; preds = %152
  %161 = call noalias ptr @_emalloc_80() #8
  br label %440

162:                                              ; preds = %152
  %163 = load i64, ptr %5, align 8
  %164 = add i64 24, %163
  %165 = add i64 %164, 1
  %166 = add i64 %165, 8
  %167 = sub i64 %166, 1
  %168 = and i64 %167, -8
  %169 = icmp ule i64 %168, 96
  br i1 %169, label %170, label %172

170:                                              ; preds = %162
  %171 = call noalias ptr @_emalloc_96() #8
  br label %438

172:                                              ; preds = %162
  %173 = load i64, ptr %5, align 8
  %174 = add i64 24, %173
  %175 = add i64 %174, 1
  %176 = add i64 %175, 8
  %177 = sub i64 %176, 1
  %178 = and i64 %177, -8
  %179 = icmp ule i64 %178, 112
  br i1 %179, label %180, label %182

180:                                              ; preds = %172
  %181 = call noalias ptr @_emalloc_112() #8
  br label %436

182:                                              ; preds = %172
  %183 = load i64, ptr %5, align 8
  %184 = add i64 24, %183
  %185 = add i64 %184, 1
  %186 = add i64 %185, 8
  %187 = sub i64 %186, 1
  %188 = and i64 %187, -8
  %189 = icmp ule i64 %188, 128
  br i1 %189, label %190, label %192

190:                                              ; preds = %182
  %191 = call noalias ptr @_emalloc_128() #8
  br label %434

192:                                              ; preds = %182
  %193 = load i64, ptr %5, align 8
  %194 = add i64 24, %193
  %195 = add i64 %194, 1
  %196 = add i64 %195, 8
  %197 = sub i64 %196, 1
  %198 = and i64 %197, -8
  %199 = icmp ule i64 %198, 160
  br i1 %199, label %200, label %202

200:                                              ; preds = %192
  %201 = call noalias ptr @_emalloc_160() #8
  br label %432

202:                                              ; preds = %192
  %203 = load i64, ptr %5, align 8
  %204 = add i64 24, %203
  %205 = add i64 %204, 1
  %206 = add i64 %205, 8
  %207 = sub i64 %206, 1
  %208 = and i64 %207, -8
  %209 = icmp ule i64 %208, 192
  br i1 %209, label %210, label %212

210:                                              ; preds = %202
  %211 = call noalias ptr @_emalloc_192() #8
  br label %430

212:                                              ; preds = %202
  %213 = load i64, ptr %5, align 8
  %214 = add i64 24, %213
  %215 = add i64 %214, 1
  %216 = add i64 %215, 8
  %217 = sub i64 %216, 1
  %218 = and i64 %217, -8
  %219 = icmp ule i64 %218, 224
  br i1 %219, label %220, label %222

220:                                              ; preds = %212
  %221 = call noalias ptr @_emalloc_224() #8
  br label %428

222:                                              ; preds = %212
  %223 = load i64, ptr %5, align 8
  %224 = add i64 24, %223
  %225 = add i64 %224, 1
  %226 = add i64 %225, 8
  %227 = sub i64 %226, 1
  %228 = and i64 %227, -8
  %229 = icmp ule i64 %228, 256
  br i1 %229, label %230, label %232

230:                                              ; preds = %222
  %231 = call noalias ptr @_emalloc_256() #8
  br label %426

232:                                              ; preds = %222
  %233 = load i64, ptr %5, align 8
  %234 = add i64 24, %233
  %235 = add i64 %234, 1
  %236 = add i64 %235, 8
  %237 = sub i64 %236, 1
  %238 = and i64 %237, -8
  %239 = icmp ule i64 %238, 320
  br i1 %239, label %240, label %242

240:                                              ; preds = %232
  %241 = call noalias ptr @_emalloc_320() #8
  br label %424

242:                                              ; preds = %232
  %243 = load i64, ptr %5, align 8
  %244 = add i64 24, %243
  %245 = add i64 %244, 1
  %246 = add i64 %245, 8
  %247 = sub i64 %246, 1
  %248 = and i64 %247, -8
  %249 = icmp ule i64 %248, 384
  br i1 %249, label %250, label %252

250:                                              ; preds = %242
  %251 = call noalias ptr @_emalloc_384() #8
  br label %422

252:                                              ; preds = %242
  %253 = load i64, ptr %5, align 8
  %254 = add i64 24, %253
  %255 = add i64 %254, 1
  %256 = add i64 %255, 8
  %257 = sub i64 %256, 1
  %258 = and i64 %257, -8
  %259 = icmp ule i64 %258, 448
  br i1 %259, label %260, label %262

260:                                              ; preds = %252
  %261 = call noalias ptr @_emalloc_448() #8
  br label %420

262:                                              ; preds = %252
  %263 = load i64, ptr %5, align 8
  %264 = add i64 24, %263
  %265 = add i64 %264, 1
  %266 = add i64 %265, 8
  %267 = sub i64 %266, 1
  %268 = and i64 %267, -8
  %269 = icmp ule i64 %268, 512
  br i1 %269, label %270, label %272

270:                                              ; preds = %262
  %271 = call noalias ptr @_emalloc_512() #8
  br label %418

272:                                              ; preds = %262
  %273 = load i64, ptr %5, align 8
  %274 = add i64 24, %273
  %275 = add i64 %274, 1
  %276 = add i64 %275, 8
  %277 = sub i64 %276, 1
  %278 = and i64 %277, -8
  %279 = icmp ule i64 %278, 640
  br i1 %279, label %280, label %282

280:                                              ; preds = %272
  %281 = call noalias ptr @_emalloc_640() #8
  br label %416

282:                                              ; preds = %272
  %283 = load i64, ptr %5, align 8
  %284 = add i64 24, %283
  %285 = add i64 %284, 1
  %286 = add i64 %285, 8
  %287 = sub i64 %286, 1
  %288 = and i64 %287, -8
  %289 = icmp ule i64 %288, 768
  br i1 %289, label %290, label %292

290:                                              ; preds = %282
  %291 = call noalias ptr @_emalloc_768() #8
  br label %414

292:                                              ; preds = %282
  %293 = load i64, ptr %5, align 8
  %294 = add i64 24, %293
  %295 = add i64 %294, 1
  %296 = add i64 %295, 8
  %297 = sub i64 %296, 1
  %298 = and i64 %297, -8
  %299 = icmp ule i64 %298, 896
  br i1 %299, label %300, label %302

300:                                              ; preds = %292
  %301 = call noalias ptr @_emalloc_896() #8
  br label %412

302:                                              ; preds = %292
  %303 = load i64, ptr %5, align 8
  %304 = add i64 24, %303
  %305 = add i64 %304, 1
  %306 = add i64 %305, 8
  %307 = sub i64 %306, 1
  %308 = and i64 %307, -8
  %309 = icmp ule i64 %308, 1024
  br i1 %309, label %310, label %312

310:                                              ; preds = %302
  %311 = call noalias ptr @_emalloc_1024() #8
  br label %410

312:                                              ; preds = %302
  %313 = load i64, ptr %5, align 8
  %314 = add i64 24, %313
  %315 = add i64 %314, 1
  %316 = add i64 %315, 8
  %317 = sub i64 %316, 1
  %318 = and i64 %317, -8
  %319 = icmp ule i64 %318, 1280
  br i1 %319, label %320, label %322

320:                                              ; preds = %312
  %321 = call noalias ptr @_emalloc_1280() #8
  br label %408

322:                                              ; preds = %312
  %323 = load i64, ptr %5, align 8
  %324 = add i64 24, %323
  %325 = add i64 %324, 1
  %326 = add i64 %325, 8
  %327 = sub i64 %326, 1
  %328 = and i64 %327, -8
  %329 = icmp ule i64 %328, 1536
  br i1 %329, label %330, label %332

330:                                              ; preds = %322
  %331 = call noalias ptr @_emalloc_1536() #8
  br label %406

332:                                              ; preds = %322
  %333 = load i64, ptr %5, align 8
  %334 = add i64 24, %333
  %335 = add i64 %334, 1
  %336 = add i64 %335, 8
  %337 = sub i64 %336, 1
  %338 = and i64 %337, -8
  %339 = icmp ule i64 %338, 1792
  br i1 %339, label %340, label %342

340:                                              ; preds = %332
  %341 = call noalias ptr @_emalloc_1792() #8
  br label %404

342:                                              ; preds = %332
  %343 = load i64, ptr %5, align 8
  %344 = add i64 24, %343
  %345 = add i64 %344, 1
  %346 = add i64 %345, 8
  %347 = sub i64 %346, 1
  %348 = and i64 %347, -8
  %349 = icmp ule i64 %348, 2048
  br i1 %349, label %350, label %352

350:                                              ; preds = %342
  %351 = call noalias ptr @_emalloc_2048() #8
  br label %402

352:                                              ; preds = %342
  %353 = load i64, ptr %5, align 8
  %354 = add i64 24, %353
  %355 = add i64 %354, 1
  %356 = add i64 %355, 8
  %357 = sub i64 %356, 1
  %358 = and i64 %357, -8
  %359 = icmp ule i64 %358, 2560
  br i1 %359, label %360, label %362

360:                                              ; preds = %352
  %361 = call noalias ptr @_emalloc_2560() #8
  br label %400

362:                                              ; preds = %352
  %363 = load i64, ptr %5, align 8
  %364 = add i64 24, %363
  %365 = add i64 %364, 1
  %366 = add i64 %365, 8
  %367 = sub i64 %366, 1
  %368 = and i64 %367, -8
  %369 = icmp ule i64 %368, 3072
  br i1 %369, label %370, label %372

370:                                              ; preds = %362
  %371 = call noalias ptr @_emalloc_3072() #8
  br label %398

372:                                              ; preds = %362
  %373 = load i64, ptr %5, align 8
  %374 = add i64 24, %373
  %375 = add i64 %374, 1
  %376 = add i64 %375, 8
  %377 = sub i64 %376, 1
  %378 = and i64 %377, -8
  %379 = icmp ule i64 %378, 2093056
  br i1 %379, label %380, label %388

380:                                              ; preds = %372
  %381 = load i64, ptr %5, align 8
  %382 = add i64 24, %381
  %383 = add i64 %382, 1
  %384 = add i64 %383, 8
  %385 = sub i64 %384, 1
  %386 = and i64 %385, -8
  %387 = call noalias ptr @_emalloc_large(i64 noundef %386) #7
  br label %396

388:                                              ; preds = %372
  %389 = load i64, ptr %5, align 8
  %390 = add i64 24, %389
  %391 = add i64 %390, 1
  %392 = add i64 %391, 8
  %393 = sub i64 %392, 1
  %394 = and i64 %393, -8
  %395 = call noalias ptr @_emalloc_huge(i64 noundef %394) #7
  br label %396

396:                                              ; preds = %388, %380
  %397 = phi ptr [ %387, %380 ], [ %395, %388 ]
  br label %398

398:                                              ; preds = %396, %370
  %399 = phi ptr [ %371, %370 ], [ %397, %396 ]
  br label %400

400:                                              ; preds = %398, %360
  %401 = phi ptr [ %361, %360 ], [ %399, %398 ]
  br label %402

402:                                              ; preds = %400, %350
  %403 = phi ptr [ %351, %350 ], [ %401, %400 ]
  br label %404

404:                                              ; preds = %402, %340
  %405 = phi ptr [ %341, %340 ], [ %403, %402 ]
  br label %406

406:                                              ; preds = %404, %330
  %407 = phi ptr [ %331, %330 ], [ %405, %404 ]
  br label %408

408:                                              ; preds = %406, %320
  %409 = phi ptr [ %321, %320 ], [ %407, %406 ]
  br label %410

410:                                              ; preds = %408, %310
  %411 = phi ptr [ %311, %310 ], [ %409, %408 ]
  br label %412

412:                                              ; preds = %410, %300
  %413 = phi ptr [ %301, %300 ], [ %411, %410 ]
  br label %414

414:                                              ; preds = %412, %290
  %415 = phi ptr [ %291, %290 ], [ %413, %412 ]
  br label %416

416:                                              ; preds = %414, %280
  %417 = phi ptr [ %281, %280 ], [ %415, %414 ]
  br label %418

418:                                              ; preds = %416, %270
  %419 = phi ptr [ %271, %270 ], [ %417, %416 ]
  br label %420

420:                                              ; preds = %418, %260
  %421 = phi ptr [ %261, %260 ], [ %419, %418 ]
  br label %422

422:                                              ; preds = %420, %250
  %423 = phi ptr [ %251, %250 ], [ %421, %420 ]
  br label %424

424:                                              ; preds = %422, %240
  %425 = phi ptr [ %241, %240 ], [ %423, %422 ]
  br label %426

426:                                              ; preds = %424, %230
  %427 = phi ptr [ %231, %230 ], [ %425, %424 ]
  br label %428

428:                                              ; preds = %426, %220
  %429 = phi ptr [ %221, %220 ], [ %427, %426 ]
  br label %430

430:                                              ; preds = %428, %210
  %431 = phi ptr [ %211, %210 ], [ %429, %428 ]
  br label %432

432:                                              ; preds = %430, %200
  %433 = phi ptr [ %201, %200 ], [ %431, %430 ]
  br label %434

434:                                              ; preds = %432, %190
  %435 = phi ptr [ %191, %190 ], [ %433, %432 ]
  br label %436

436:                                              ; preds = %434, %180
  %437 = phi ptr [ %181, %180 ], [ %435, %434 ]
  br label %438

438:                                              ; preds = %436, %170
  %439 = phi ptr [ %171, %170 ], [ %437, %436 ]
  br label %440

440:                                              ; preds = %438, %160
  %441 = phi ptr [ %161, %160 ], [ %439, %438 ]
  br label %442

442:                                              ; preds = %440, %150
  %443 = phi ptr [ %151, %150 ], [ %441, %440 ]
  br label %444

444:                                              ; preds = %442, %140
  %445 = phi ptr [ %141, %140 ], [ %443, %442 ]
  br label %446

446:                                              ; preds = %444, %130
  %447 = phi ptr [ %131, %130 ], [ %445, %444 ]
  br label %448

448:                                              ; preds = %446, %120
  %449 = phi ptr [ %121, %120 ], [ %447, %446 ]
  br label %450

450:                                              ; preds = %448, %110
  %451 = phi ptr [ %111, %110 ], [ %449, %448 ]
  br label %452

452:                                              ; preds = %450, %100
  %453 = phi ptr [ %101, %100 ], [ %451, %450 ]
  br label %454

454:                                              ; preds = %452, %90
  %455 = phi ptr [ %91, %90 ], [ %453, %452 ]
  br label %456

456:                                              ; preds = %454, %80
  %457 = phi ptr [ %81, %80 ], [ %455, %454 ]
  br label %466

458:                                              ; preds = %64
  %459 = load i64, ptr %5, align 8
  %460 = add i64 24, %459
  %461 = add i64 %460, 1
  %462 = add i64 %461, 8
  %463 = sub i64 %462, 1
  %464 = and i64 %463, -8
  %465 = call noalias ptr @_emalloc(i64 noundef %464) #7
  br label %466

466:                                              ; preds = %458, %456
  %467 = phi ptr [ %457, %456 ], [ %465, %458 ]
  br label %468

468:                                              ; preds = %466, %56
  %469 = phi ptr [ %63, %56 ], [ %467, %466 ]
  store ptr %469, ptr %7, align 8
  %470 = load ptr, ptr %7, align 8
  store ptr %470, ptr %3, align 8
  store i32 1, ptr %4, align 4
  %471 = load i32, ptr %4, align 4
  %472 = load ptr, ptr %3, align 8
  store i32 %471, ptr %472, align 4
  %473 = load i8, ptr %6, align 1
  %474 = trunc i8 %473 to i1
  %475 = select i1 %474, i32 128, i32 0
  %476 = or i32 22, %475
  %477 = load ptr, ptr %7, align 8
  %478 = getelementptr inbounds %struct._zend_refcounted_h, ptr %477, i32 0, i32 1
  store i32 %476, ptr %478, align 4
  %479 = load ptr, ptr %7, align 8
  %480 = getelementptr inbounds %struct._zend_string, ptr %479, i32 0, i32 1
  store i64 0, ptr %480, align 8
  %481 = load i64, ptr %5, align 8
  %482 = load ptr, ptr %7, align 8
  %483 = getelementptr inbounds %struct._zend_string, ptr %482, i32 0, i32 2
  store i64 %481, ptr %483, align 8
  %484 = load ptr, ptr %7, align 8
  store ptr %484, ptr %11, align 8
  %485 = load ptr, ptr %11, align 8
  %486 = getelementptr inbounds %struct._zend_string, ptr %485, i32 0, i32 3
  %487 = load ptr, ptr %8, align 8
  %488 = load i64, ptr %9, align 8
  call void @llvm.memcpy.p0.p0.i64(ptr align 8 %486, ptr align 1 %487, i64 %488, i1 false)
  %489 = load ptr, ptr %11, align 8
  %490 = getelementptr inbounds %struct._zend_string, ptr %489, i32 0, i32 3
  %491 = load i64, ptr %9, align 8
  %492 = getelementptr inbounds [1 x i8], ptr %490, i64 0, i64 %491
  store i8 0, ptr %492, align 1
  %493 = load ptr, ptr %11, align 8
  store ptr %493, ptr %18, align 8
  %494 = load ptr, ptr %18, align 8
  %495 = load ptr, ptr %17, align 8
  %496 = getelementptr inbounds %struct._zval_struct, ptr %495, i32 0, i32 0
  store ptr %494, ptr %496, align 8
  %497 = load ptr, ptr %17, align 8
  %498 = getelementptr inbounds %struct._zval_struct, ptr %497, i32 0, i32 1
  store i32 262, ptr %498, align 8
  br label %499

499:                                              ; preds = %468
  br label %500

500:                                              ; preds = %499
  br label %501

501:                                              ; preds = %500
  br label %502

502:                                              ; preds = %501, %38
  store i32 0, ptr %12, align 4
  br label %503

503:                                              ; preds = %502, %23
  %504 = load i32, ptr %12, align 4
  ret i32 %504
}