; Function Attrs: nounwind uwtable
define hidden noundef i32 @dom_entity_public_id_read(ptr noundef %0, ptr nocapture noundef writeonly %1) local_unnamed_addr #0 {
  %3 = tail call ptr @dom_object_get_node(ptr noundef %0) #6
  %4 = icmp eq ptr %3, null
  br i1 %4, label %5, label %6

5:                                                ; preds = %2
  tail call void @php_dom_throw_error(i32 noundef 11, i32 noundef 1) #6
  br label %25

6:                                                ; preds = %2
  %7 = getelementptr inbounds i8, ptr %3, i64 92
  %8 = load i32, ptr %7, align 4
  %.not = icmp eq i32 %8, 3
  br i1 %.not, label %9, label %12

9:                                                ; preds = %6
  %10 = getelementptr inbounds i8, ptr %3, i64 96
  %11 = load ptr, ptr %10, align 8
  %.not69 = icmp eq ptr %11, null
  br i1 %.not69, label %12, label %14

12:                                               ; preds = %6, %9
  %13 = getelementptr inbounds i8, ptr %1, i64 8
  store i32 1, ptr %13, align 8
  br label %25

14:                                               ; preds = %9
  %15 = tail call i64 @strlen(ptr noundef nonnull dereferenceable(1) %11) #7
  %16 = and i64 %15, -8
  %17 = add i64 %16, 32
  %18 = tail call noalias ptr @_emalloc(i64 noundef %17) #8
  store i32 1, ptr %18, align 4
  %19 = getelementptr inbounds i8, ptr %18, i64 4
  store i32 22, ptr %19, align 4
  %20 = getelementptr inbounds i8, ptr %18, i64 8
  store i64 0, ptr %20, align 8
  %21 = getelementptr inbounds i8, ptr %18, i64 16
  store i64 %15, ptr %21, align 8
  %22 = getelementptr inbounds i8, ptr %18, i64 24
  tail call void @llvm.memcpy.p0.p0.i64(ptr nonnull align 8 %22, ptr nonnull align 1 %11, i64 %15, i1 false)
  %23 = getelementptr inbounds [1 x i8], ptr %22, i64 0, i64 %15
  store i8 0, ptr %23, align 1
  store ptr %18, ptr %1, align 8
  %24 = getelementptr inbounds i8, ptr %1, i64 8
  store i32 262, ptr %24, align 8
  br label %25

25:                                               ; preds = %12, %14, %5
  %.0 = phi i32 [ -1, %5 ], [ 0, %14 ], [ 0, %12 ]
  ret i32 %.0
}